target datalayout = "e-m:e-p270:32:32-p271:32:32-p272:64:64-i64:64-i128:128-f80:128-n8:16:32:64-S128"
target triple = "x86_64-unknown-linux-gnu"

%"class.std::vector.0" = type { %"struct.std::_Vector_base.1" }
%"struct.std::_Vector_base.1" = type { %"struct.std::_Vector_base<std::pair<unsigned long, unsigned long>, std::allocator<std::pair<unsigned long, unsigned long>>>::_Vector_impl" }
%"struct.std::_Vector_base<std::pair<unsigned long, unsigned long>, std::allocator<std::pair<unsigned long, unsigned long>>>::_Vector_impl" = type { %"struct.std::_Vector_base<std::pair<unsigned long, unsigned long>, std::allocator<std::pair<unsigned long, unsigned long>>>::_Vector_impl_data" }
%"struct.std::_Vector_base<std::pair<unsigned long, unsigned long>, std::allocator<std::pair<unsigned long, unsigned long>>>::_Vector_impl_data" = type { ptr, ptr, ptr }
%"class.QuantLib::EvolutionDescription" = type { i64, %"class.std::vector", %"class.std::vector", %"class.std::vector.0", %"class.std::vector", %"class.std::vector.5" }
%"class.std::vector" = type { %"struct.std::_Vector_base" }
%"struct.std::_Vector_base" = type { %"struct.std::_Vector_base<double, std::allocator<double>>::_Vector_impl" }
%"struct.std::_Vector_base<double, std::allocator<double>>::_Vector_impl" = type { %"struct.std::_Vector_base<double, std::allocator<double>>::_Vector_impl_data" }
%"struct.std::_Vector_base<double, std::allocator<double>>::_Vector_impl_data" = type { ptr, ptr, ptr }
%"class.std::vector.5" = type { %"struct.std::_Vector_base.6" }
%"struct.std::_Vector_base.6" = type { %"struct.std::_Vector_base<unsigned long, std::allocator<unsigned long>>::_Vector_impl" }
%"struct.std::_Vector_base<unsigned long, std::allocator<unsigned long>>::_Vector_impl" = type { %"struct.std::_Vector_base<unsigned long, std::allocator<unsigned long>>::_Vector_impl_data" }
%"struct.std::_Vector_base<unsigned long, std::allocator<unsigned long>>::_Vector_impl_data" = type { ptr, ptr, ptr }
%"class.__gnu_cxx::__normal_iterator.15" = type { ptr }
%"struct.__gnu_cxx::__ops::_Iter_less_iter" = type { i8 }

; Function Attrs: mustprogress nounwind uwtable
define linkonce_odr noundef nonnull align 8 dereferenceable(8) ptr @_ZNK9__gnu_cxx17__normal_iteratorIPKmSt6vectorImSaImEEE4baseEv(ptr noundef nonnull align 8 dereferenceable(8) %this) #1 comdat align 2 {
entry:
  %this.addr = alloca ptr, align 8
  store ptr %this, ptr %this.addr, align 8, !tbaa !3
  %this1 = load ptr, ptr %this.addr, align 8
  %_M_current = getelementptr inbounds nuw %"class.__gnu_cxx::__normal_iterator.15", ptr %this1, i32 0, i32 0
  ret ptr %_M_current
}

; Function Attrs: mustprogress nounwind uwtable
define linkonce_odr noundef zeroext i1 @_ZNK9__gnu_cxx5__ops15_Iter_less_iterclINS_17__normal_iteratorIPKmSt6vectorImSaImEEEES9_EEbT_T0_(ptr noundef nonnull align 1 dereferenceable(1) %this, ptr %__it1.coerce, ptr %__it2.coerce) #1 comdat align 2 {
entry:
  %__it1 = alloca %"class.__gnu_cxx::__normal_iterator.15", align 8
  %__it2 = alloca %"class.__gnu_cxx::__normal_iterator.15", align 8
  %this.addr = alloca ptr, align 8
  %coerce.dive = getelementptr inbounds nuw %"class.__gnu_cxx::__normal_iterator.15", ptr %__it1, i32 0, i32 0
  store ptr %__it1.coerce, ptr %coerce.dive, align 8
  %coerce.dive1 = getelementptr inbounds nuw %"class.__gnu_cxx::__normal_iterator.15", ptr %__it2, i32 0, i32 0
  store ptr %__it2.coerce, ptr %coerce.dive1, align 8
  store ptr %this, ptr %this.addr, align 8, !tbaa !3
  %call = call noundef nonnull align 8 dereferenceable(8) ptr @_ZNK9__gnu_cxx17__normal_iteratorIPKmSt6vectorImSaImEEEdeEv(ptr noundef nonnull align 8 dereferenceable(8) %__it1) #14
  %0 = load i64, ptr %call, align 8, !tbaa !22
  %call3 = call noundef nonnull align 8 dereferenceable(8) ptr @_ZNK9__gnu_cxx17__normal_iteratorIPKmSt6vectorImSaImEEEdeEv(ptr noundef nonnull align 8 dereferenceable(8) %__it2) #14
  %1 = load i64, ptr %call3, align 8, !tbaa !22
  %cmp = icmp ult i64 %0, %1
  ret i1 %cmp
}

; Function Attrs: inlinehint mustprogress nounwind uwtable
define linkonce_odr noundef zeroext i1 @_ZN9__gnu_cxxneIPKmSt6vectorImSaImEEEEbRKNS_17__normal_iteratorIT_T0_EESB_(ptr noundef nonnull align 8 dereferenceable(8) %__lhs, ptr noundef nonnull align 8 dereferenceable(8) %__rhs) #5 comdat {
entry:
  %__lhs.addr = alloca ptr, align 8
  %__rhs.addr = alloca ptr, align 8
  store ptr %__lhs, ptr %__lhs.addr, align 8, !tbaa !3
  store ptr %__rhs, ptr %__rhs.addr, align 8, !tbaa !3
  %0 = load ptr, ptr %__lhs.addr, align 8, !tbaa !3
  %call = call noundef nonnull align 8 dereferenceable(8) ptr @_ZNK9__gnu_cxx17__normal_iteratorIPKmSt6vectorImSaImEEE4baseEv(ptr noundef nonnull align 8 dereferenceable(8) %0) #14
  %1 = load ptr, ptr %call, align 8, !tbaa !3
  %2 = load ptr, ptr %__rhs.addr, align 8, !tbaa !3
  %call1 = call noundef nonnull align 8 dereferenceable(8) ptr @_ZNK9__gnu_cxx17__normal_iteratorIPKmSt6vectorImSaImEEE4baseEv(ptr noundef nonnull align 8 dereferenceable(8) %2) #14
  %3 = load ptr, ptr %call1, align 8, !tbaa !3
  %cmp = icmp ne ptr %1, %3
  ret i1 %cmp
}

; Function Attrs: mustprogress nounwind uwtable
define linkonce_odr noundef nonnull align 8 dereferenceable(8) ptr @_ZN9__gnu_cxx17__normal_iteratorIPKmSt6vectorImSaImEEEppEv(ptr noundef nonnull align 8 dereferenceable(8) %this) #1 comdat align 2 {
entry:
  %this.addr = alloca ptr, align 8
  store ptr %this, ptr %this.addr, align 8, !tbaa !3
  %this1 = load ptr, ptr %this.addr, align 8
  %_M_current = getelementptr inbounds nuw %"class.__gnu_cxx::__normal_iterator.15", ptr %this1, i32 0, i32 0
  %0 = load ptr, ptr %_M_current, align 8, !tbaa !47
  %incdec.ptr = getelementptr inbounds nuw i64, ptr %0, i32 1
  store ptr %incdec.ptr, ptr %_M_current, align 8, !tbaa !47
  ret ptr %this1
}

; Function Attrs: inlinehint mustprogress nounwind uwtable
define linkonce_odr noundef zeroext i1 @_ZN9__gnu_cxxeqIPKmSt6vectorImSaImEEEEbRKNS_17__normal_iteratorIT_T0_EESB_(ptr noundef nonnull align 8 dereferenceable(8) %__lhs, ptr noundef nonnull align 8 dereferenceable(8) %__rhs) #5 comdat {
entry:
  %__lhs.addr = alloca ptr, align 8
  %__rhs.addr = alloca ptr, align 8
  store ptr %__lhs, ptr %__lhs.addr, align 8, !tbaa !3
  store ptr %__rhs, ptr %__rhs.addr, align 8, !tbaa !3
  %0 = load ptr, ptr %__lhs.addr, align 8, !tbaa !3
  %call = call noundef nonnull align 8 dereferenceable(8) ptr @_ZNK9__gnu_cxx17__normal_iteratorIPKmSt6vectorImSaImEEE4baseEv(ptr noundef nonnull align 8 dereferenceable(8) %0) #14
  %1 = load ptr, ptr %call, align 8, !tbaa !3
  %2 = load ptr, ptr %__rhs.addr, align 8, !tbaa !3
  %call1 = call noundef nonnull align 8 dereferenceable(8) ptr @_ZNK9__gnu_cxx17__normal_iteratorIPKmSt6vectorImSaImEEE4baseEv(ptr noundef nonnull align 8 dereferenceable(8) %2) #14
  %3 = load ptr, ptr %call1, align 8, !tbaa !3
  %cmp = icmp eq ptr %1, %3
  ret i1 %cmp
}

; Function Attrs: mustprogress uwtable
define linkonce_odr ptr @_ZSt13__min_elementIN9__gnu_cxx17__normal_iteratorIPKmSt6vectorImSaImEEEENS0_5__ops15_Iter_less_iterEET_SA_SA_T0_(ptr %__first.coerce, ptr %__last.coerce) #0 comdat {
entry:
  %retval = alloca %"class.__gnu_cxx::__normal_iterator.15", align 8
  %__first = alloca %"class.__gnu_cxx::__normal_iterator.15", align 8
  %__last = alloca %"class.__gnu_cxx::__normal_iterator.15", align 8
  %__comp = alloca %"struct.__gnu_cxx::__ops::_Iter_less_iter", align 1
  %agg.tmp = alloca %"class.__gnu_cxx::__normal_iterator.15", align 8
  %agg.tmp4 = alloca %"class.__gnu_cxx::__normal_iterator.15", align 8
  %coerce.dive = getelementptr inbounds nuw %"class.__gnu_cxx::__normal_iterator.15", ptr %__first, i32 0, i32 0
  store ptr %__first.coerce, ptr %coerce.dive, align 8
  %coerce.dive1 = getelementptr inbounds nuw %"class.__gnu_cxx::__normal_iterator.15", ptr %__last, i32 0, i32 0
  store ptr %__last.coerce, ptr %coerce.dive1, align 8
  %call = call noundef zeroext i1 @_ZN9__gnu_cxxeqIPKmSt6vectorImSaImEEEEbRKNS_17__normal_iteratorIT_T0_EESB_(ptr noundef nonnull align 8 dereferenceable(8) %__first, ptr noundef nonnull align 8 dereferenceable(8) %__last) #14
  br i1 %call, label %if.then, label %if.end

if.then:                                          ; preds = %entry
  call void @llvm.memcpy.p0.p0.i64(ptr align 8 %retval, ptr align 8 %__first, i64 8, i1 false), !tbaa.struct !34
  br label %return

if.end:                                           ; preds = %entry
  call void @llvm.memcpy.p0.p0.i64(ptr align 8 %retval, ptr align 8 %__first, i64 8, i1 false), !tbaa.struct !34
  br label %while.cond

while.cond:                                       ; preds = %if.end9, %if.end
  %call2 = call noundef nonnull align 8 dereferenceable(8) ptr @_ZN9__gnu_cxx17__normal_iteratorIPKmSt6vectorImSaImEEEppEv(ptr noundef nonnull align 8 dereferenceable(8) %__first) #14
  %call3 = call noundef zeroext i1 @_ZN9__gnu_cxxneIPKmSt6vectorImSaImEEEEbRKNS_17__normal_iteratorIT_T0_EESB_(ptr noundef nonnull align 8 dereferenceable(8) %call2, ptr noundef nonnull align 8 dereferenceable(8) %__last) #14
  br i1 %call3, label %while.body, label %while.end

while.body:                                       ; preds = %while.cond
  call void @llvm.memcpy.p0.p0.i64(ptr align 8 %agg.tmp, ptr align 8 %__first, i64 8, i1 false), !tbaa.struct !34
  call void @llvm.memcpy.p0.p0.i64(ptr align 8 %agg.tmp4, ptr align 8 %retval, i64 8, i1 false), !tbaa.struct !34
  %coerce.dive5 = getelementptr inbounds nuw %"class.__gnu_cxx::__normal_iterator.15", ptr %agg.tmp, i32 0, i32 0
  %0 = load ptr, ptr %coerce.dive5, align 8
  %coerce.dive6 = getelementptr inbounds nuw %"class.__gnu_cxx::__normal_iterator.15", ptr %agg.tmp4, i32 0, i32 0
  %1 = load ptr, ptr %coerce.dive6, align 8
  %call7 = call noundef zeroext i1 @_ZNK9__gnu_cxx5__ops15_Iter_less_iterclINS_17__normal_iteratorIPKmSt6vectorImSaImEEEES9_EEbT_T0_(ptr noundef nonnull align 1 dereferenceable(1) %__comp, ptr %0, ptr %1)
  br i1 %call7, label %if.then8, label %if.end9

if.then8:                                         ; preds = %while.body
  call void @llvm.memcpy.p0.p0.i64(ptr align 8 %retval, ptr align 8 %__first, i64 8, i1 false), !tbaa.struct !34
  br label %if.end9

if.end9:                                          ; preds = %if.then8, %while.body
  br label %while.cond, !llvm.loop !62

while.end:                                        ; preds = %while.cond
  br label %return

return:                                           ; preds = %while.end, %if.then
  %coerce.dive10 = getelementptr inbounds nuw %"class.__gnu_cxx::__normal_iterator.15", ptr %retval, i32 0, i32 0
  %2 = load ptr, ptr %coerce.dive10, align 8
  ret ptr %2
}

; Function Attrs: inlinehint mustprogress nounwind uwtable
define linkonce_odr void @_ZN9__gnu_cxx5__ops16__iter_less_iterEv() #5 comdat {
entry:
  ret void
}

; Function Attrs: mustprogress nounwind uwtable
define linkonce_odr void @_ZN9__gnu_cxx17__normal_iteratorIPKmSt6vectorImSaImEEEC2ERKS2_(ptr noundef nonnull align 8 dereferenceable(8) %this, ptr noundef nonnull align 8 dereferenceable(8) %__i) unnamed_addr #1 comdat align 2 {
entry:
  %this.addr = alloca ptr, align 8
  %__i.addr = alloca ptr, align 8
  store ptr %this, ptr %this.addr, align 8, !tbaa !3
  store ptr %__i, ptr %__i.addr, align 8, !tbaa !3
  %this1 = load ptr, ptr %this.addr, align 8
  %_M_current = getelementptr inbounds nuw %"class.__gnu_cxx::__normal_iterator.15", ptr %this1, i32 0, i32 0
  %0 = load ptr, ptr %__i.addr, align 8, !tbaa !3
  %1 = load ptr, ptr %0, align 8, !tbaa !3
  store ptr %1, ptr %_M_current, align 8, !tbaa !47
  ret void
}

; Function Attrs: mustprogress nounwind uwtable
define linkonce_odr noundef i64 @_ZNKSt6vectorIdSaIdEE4sizeEv(ptr noundef nonnull align 8 dereferenceable(24) %this) #1 comdat align 2 {
entry:
  %this.addr = alloca ptr, align 8
  store ptr %this, ptr %this.addr, align 8, !tbaa !3
  %this1 = load ptr, ptr %this.addr, align 8
  %_M_impl = getelementptr inbounds nuw %"struct.std::_Vector_base", ptr %this1, i32 0, i32 0
  %_M_finish = getelementptr inbounds nuw %"struct.std::_Vector_base<double, std::allocator<double>>::_Vector_impl_data", ptr %_M_impl, i32 0, i32 1
  %0 = load ptr, ptr %_M_finish, align 8, !tbaa !30
  %_M_impl2 = getelementptr inbounds nuw %"struct.std::_Vector_base", ptr %this1, i32 0, i32 0
  %_M_start = getelementptr inbounds nuw %"struct.std::_Vector_base<double, std::allocator<double>>::_Vector_impl_data", ptr %_M_impl2, i32 0, i32 0
  %1 = load ptr, ptr %_M_start, align 8, !tbaa !31
  %sub.ptr.lhs.cast = ptrtoint ptr %0 to i64
  %sub.ptr.rhs.cast = ptrtoint ptr %1 to i64
  %sub.ptr.sub = sub i64 %sub.ptr.lhs.cast, %sub.ptr.rhs.cast
  %sub.ptr.div = sdiv exact i64 %sub.ptr.sub, 8
  ret i64 %sub.ptr.div
}

; Function Attrs: mustprogress nounwind uwtable
define linkonce_odr noundef nonnull align 8 dereferenceable(8) ptr @_ZNK9__gnu_cxx17__normal_iteratorIPKmSt6vectorImSaImEEEdeEv(ptr noundef nonnull align 8 dereferenceable(8) %this) #1 comdat align 2 {
entry:
  %this.addr = alloca ptr, align 8
  store ptr %this, ptr %this.addr, align 8, !tbaa !3
  %this1 = load ptr, ptr %this.addr, align 8
  %_M_current = getelementptr inbounds nuw %"class.__gnu_cxx::__normal_iterator.15", ptr %this1, i32 0, i32 0
  %0 = load ptr, ptr %_M_current, align 8, !tbaa !47
  ret ptr %0
}

; Function Attrs: inlinehint mustprogress uwtable
define linkonce_odr ptr @_ZSt11min_elementIN9__gnu_cxx17__normal_iteratorIPKmSt6vectorImSaImEEEEET_S8_S8_(ptr %__first.coerce, ptr %__last.coerce) #4 comdat {
entry:
  %retval = alloca %"class.__gnu_cxx::__normal_iterator.15", align 8
  %__first = alloca %"class.__gnu_cxx::__normal_iterator.15", align 8
  %__last = alloca %"class.__gnu_cxx::__normal_iterator.15", align 8
  %agg.tmp = alloca %"class.__gnu_cxx::__normal_iterator.15", align 8
  %agg.tmp2 = alloca %"class.__gnu_cxx::__normal_iterator.15", align 8
  %coerce.dive = getelementptr inbounds nuw %"class.__gnu_cxx::__normal_iterator.15", ptr %__first, i32 0, i32 0
  store ptr %__first.coerce, ptr %coerce.dive, align 8
  %coerce.dive1 = getelementptr inbounds nuw %"class.__gnu_cxx::__normal_iterator.15", ptr %__last, i32 0, i32 0
  store ptr %__last.coerce, ptr %coerce.dive1, align 8
  call void @llvm.memcpy.p0.p0.i64(ptr align 8 %agg.tmp, ptr align 8 %__first, i64 8, i1 false), !tbaa.struct !34
  call void @llvm.memcpy.p0.p0.i64(ptr align 8 %agg.tmp2, ptr align 8 %__last, i64 8, i1 false), !tbaa.struct !34
  call void @_ZN9__gnu_cxx5__ops16__iter_less_iterEv()
  %coerce.dive4 = getelementptr inbounds nuw %"class.__gnu_cxx::__normal_iterator.15", ptr %agg.tmp, i32 0, i32 0
  %0 = load ptr, ptr %coerce.dive4, align 8
  %coerce.dive5 = getelementptr inbounds nuw %"class.__gnu_cxx::__normal_iterator.15", ptr %agg.tmp2, i32 0, i32 0
  %1 = load ptr, ptr %coerce.dive5, align 8
  %call = call ptr @_ZSt13__min_elementIN9__gnu_cxx17__normal_iteratorIPKmSt6vectorImSaImEEEENS0_5__ops15_Iter_less_iterEET_SA_SA_T0_(ptr %0, ptr %1)
  %coerce.dive6 = getelementptr inbounds nuw %"class.__gnu_cxx::__normal_iterator.15", ptr %retval, i32 0, i32 0
  store ptr %call, ptr %coerce.dive6, align 8
  %coerce.dive7 = getelementptr inbounds nuw %"class.__gnu_cxx::__normal_iterator.15", ptr %retval, i32 0, i32 0
  %2 = load ptr, ptr %coerce.dive7, align 8
  ret ptr %2
}

; Function Attrs: mustprogress nounwind uwtable
define linkonce_odr ptr @_ZNKSt6vectorImSaImEE3endEv(ptr noundef nonnull align 8 dereferenceable(24) %this) #1 comdat align 2 {
entry:
  %retval = alloca %"class.__gnu_cxx::__normal_iterator.15", align 8
  %this.addr = alloca ptr, align 8
  store ptr %this, ptr %this.addr, align 8, !tbaa !3
  %this1 = load ptr, ptr %this.addr, align 8
  %_M_impl = getelementptr inbounds nuw %"struct.std::_Vector_base.6", ptr %this1, i32 0, i32 0
  %_M_finish = getelementptr inbounds nuw %"struct.std::_Vector_base<unsigned long, std::allocator<unsigned long>>::_Vector_impl_data", ptr %_M_impl, i32 0, i32 1
  call void @_ZN9__gnu_cxx17__normal_iteratorIPKmSt6vectorImSaImEEEC2ERKS2_(ptr noundef nonnull align 8 dereferenceable(8) %retval, ptr noundef nonnull align 8 dereferenceable(8) %_M_finish) #14
  %coerce.dive = getelementptr inbounds nuw %"class.__gnu_cxx::__normal_iterator.15", ptr %retval, i32 0, i32 0
  %0 = load ptr, ptr %coerce.dive, align 8
  ret ptr %0
}

; Function Attrs: mustprogress nounwind uwtable
define linkonce_odr ptr @_ZNKSt6vectorImSaImEE5beginEv(ptr noundef nonnull align 8 dereferenceable(24) %this) #1 comdat align 2 {
entry:
  %retval = alloca %"class.__gnu_cxx::__normal_iterator.15", align 8
  %this.addr = alloca ptr, align 8
  store ptr %this, ptr %this.addr, align 8, !tbaa !3
  %this1 = load ptr, ptr %this.addr, align 8
  %_M_impl = getelementptr inbounds nuw %"struct.std::_Vector_base.6", ptr %this1, i32 0, i32 0
  %_M_start = getelementptr inbounds nuw %"struct.std::_Vector_base<unsigned long, std::allocator<unsigned long>>::_Vector_impl_data", ptr %_M_impl, i32 0, i32 0
  call void @_ZN9__gnu_cxx17__normal_iteratorIPKmSt6vectorImSaImEEEC2ERKS2_(ptr noundef nonnull align 8 dereferenceable(8) %retval, ptr noundef nonnull align 8 dereferenceable(8) %_M_start) #14
  %coerce.dive = getelementptr inbounds nuw %"class.__gnu_cxx::__normal_iterator.15", ptr %retval, i32 0, i32 0
  %0 = load ptr, ptr %coerce.dive, align 8
  ret ptr %0
}

; Function Attrs: mustprogress nounwind uwtable
define noundef nonnull align 8 dereferenceable(24) ptr @_ZNK8QuantLib20EvolutionDescription9rateTimesEv(ptr noundef nonnull align 8 dereferenceable(128) %this) #1 align 2 {
entry:
  %this.addr = alloca ptr, align 8
  store ptr %this, ptr %this.addr, align 8, !tbaa !3
  %this1 = load ptr, ptr %this.addr, align 8
  %rateTimes_ = getelementptr inbounds nuw %"class.QuantLib::EvolutionDescription", ptr %this1, i32 0, i32 1
  ret ptr %rateTimes_
}

; Function Attrs: mustprogress uwtable
define noundef zeroext i1 @_ZN8QuantLib19isInTerminalMeasureERKNS_20EvolutionDescriptionERKSt6vectorImSaImEE(ptr noundef nonnull align 8 dereferenceable(128) %evolution, ptr noundef nonnull align 8 dereferenceable(24) %numeraires) #0 {
entry:
  %evolution.addr = alloca ptr, align 8
  %numeraires.addr = alloca ptr, align 8
  %rateTimes = alloca ptr, align 8
  %ref.tmp = alloca %"class.__gnu_cxx::__normal_iterator.15", align 8
  %agg.tmp = alloca %"class.__gnu_cxx::__normal_iterator.15", align 8
  %agg.tmp2 = alloca %"class.__gnu_cxx::__normal_iterator.15", align 8
  store ptr %evolution, ptr %evolution.addr, align 8, !tbaa !3
  store ptr %numeraires, ptr %numeraires.addr, align 8, !tbaa !3
  call void @llvm.lifetime.start.p0(i64 8, ptr %rateTimes) #14
  %0 = load ptr, ptr %evolution.addr, align 8, !tbaa !3
  %call = call noundef nonnull align 8 dereferenceable(24) ptr @_ZNK8QuantLib20EvolutionDescription9rateTimesEv(ptr noundef nonnull align 8 dereferenceable(128) %0)
  store ptr %call, ptr %rateTimes, align 8, !tbaa !3
  call void @llvm.lifetime.start.p0(i64 8, ptr %ref.tmp) #14
  %1 = load ptr, ptr %numeraires.addr, align 8, !tbaa !3
  %call1 = call ptr @_ZNKSt6vectorImSaImEE5beginEv(ptr noundef nonnull align 8 dereferenceable(24) %1) #14
  %coerce.dive = getelementptr inbounds nuw %"class.__gnu_cxx::__normal_iterator.15", ptr %agg.tmp, i32 0, i32 0
  store ptr %call1, ptr %coerce.dive, align 8
  %2 = load ptr, ptr %numeraires.addr, align 8, !tbaa !3
  %call3 = call ptr @_ZNKSt6vectorImSaImEE3endEv(ptr noundef nonnull align 8 dereferenceable(24) %2) #14
  %coerce.dive4 = getelementptr inbounds nuw %"class.__gnu_cxx::__normal_iterator.15", ptr %agg.tmp2, i32 0, i32 0
  store ptr %call3, ptr %coerce.dive4, align 8
  %coerce.dive5 = getelementptr inbounds nuw %"class.__gnu_cxx::__normal_iterator.15", ptr %agg.tmp, i32 0, i32 0
  %3 = load ptr, ptr %coerce.dive5, align 8
  %coerce.dive6 = getelementptr inbounds nuw %"class.__gnu_cxx::__normal_iterator.15", ptr %agg.tmp2, i32 0, i32 0
  %4 = load ptr, ptr %coerce.dive6, align 8
  %call7 = call ptr @_ZSt11min_elementIN9__gnu_cxx17__normal_iteratorIPKmSt6vectorImSaImEEEEET_S8_S8_(ptr %3, ptr %4)
  %coerce.dive8 = getelementptr inbounds nuw %"class.__gnu_cxx::__normal_iterator.15", ptr %ref.tmp, i32 0, i32 0
  store ptr %call7, ptr %coerce.dive8, align 8
  %call9 = call noundef nonnull align 8 dereferenceable(8) ptr @_ZNK9__gnu_cxx17__normal_iteratorIPKmSt6vectorImSaImEEEdeEv(ptr noundef nonnull align 8 dereferenceable(8) %ref.tmp) #14
  %5 = load i64, ptr %call9, align 8, !tbaa !22
  %6 = load ptr, ptr %rateTimes, align 8, !tbaa !3
  %call10 = call noundef i64 @_ZNKSt6vectorIdSaIdEE4sizeEv(ptr noundef nonnull align 8 dereferenceable(24) %6) #14
  %sub = sub i64 %call10, 1
  %cmp = icmp eq i64 %5, %sub
  call void @llvm.lifetime.end.p0(i64 8, ptr %ref.tmp) #14
  call void @llvm.lifetime.end.p0(i64 8, ptr %rateTimes) #14
  ret i1 %cmp
}