; Function Attrs: mustprogress nofree norecurse nosync nounwind willreturn memory(read, inaccessiblemem: none) uwtable
define noundef zeroext i1 @_ZN8QuantLib19isInTerminalMeasureERKNS_20EvolutionDescriptionERKSt6vectorImSaImEE(ptr nocapture noundef nonnull readonly align 8 dereferenceable(128) %evolution, ptr nocapture noundef nonnull readonly align 8 dereferenceable(24) %numeraires) local_unnamed_addr #8 {
entry:
  %0 = load ptr, ptr %numeraires, align 8, !tbaa !3
  %_M_finish.i = getelementptr inbounds nuw i8, ptr %numeraires, i64 8
  %1 = load ptr, ptr %_M_finish.i, align 8, !tbaa !3
  %cmp.i.i.i = icmp eq ptr %0, %1
  %incdec.ptr.i8.i.i = getelementptr inbounds nuw i8, ptr %0, i64 8
  %cmp.i3.not9.i.i = icmp eq ptr %incdec.ptr.i8.i.i, %1
  %or.cond.i.i = select i1 %cmp.i.i.i, i1 true, i1 %cmp.i3.not9.i.i
  br i1 %or.cond.i.i, label %_ZSt11min_elementIN9__gnu_cxx17__normal_iteratorIPKmSt6vectorImSaImEEEEET_S8_S8_.exit, label %while.body.preheader.i.i

while.body.preheader.i.i:                         ; preds = %entry
  %.pre.i.i = load i64, ptr %0, align 8, !tbaa !35
  br label %while.body.i.i

while.body.i.i:                                   ; preds = %while.body.i.i, %while.body.preheader.i.i
  %2 = phi i64 [ %4, %while.body.i.i ], [ %.pre.i.i, %while.body.preheader.i.i ]
  %incdec.ptr.i11.i.i = phi ptr [ %incdec.ptr.i.i.i, %while.body.i.i ], [ %incdec.ptr.i8.i.i, %while.body.preheader.i.i ]
  %retval.sroa.0.110.i.i = phi ptr [ %spec.select.i.i, %while.body.i.i ], [ %0, %while.body.preheader.i.i ]
  %3 = load i64, ptr %incdec.ptr.i11.i.i, align 8, !tbaa !35
  %cmp.i4.i.i = icmp ult i64 %3, %2
  %4 = tail call i64 @llvm.umin.i64(i64 %3, i64 %2)
  %spec.select.i.i = select i1 %cmp.i4.i.i, ptr %incdec.ptr.i11.i.i, ptr %retval.sroa.0.110.i.i
  %incdec.ptr.i.i.i = getelementptr inbounds nuw i8, ptr %incdec.ptr.i11.i.i, i64 8
  %cmp.i3.not.i.i = icmp eq ptr %incdec.ptr.i.i.i, %1
  br i1 %cmp.i3.not.i.i, label %_ZSt11min_elementIN9__gnu_cxx17__normal_iteratorIPKmSt6vectorImSaImEEEEET_S8_S8_.exit, label %while.body.i.i, !llvm.loop !51

_ZSt11min_elementIN9__gnu_cxx17__normal_iteratorIPKmSt6vectorImSaImEEEEET_S8_S8_.exit: ; preds = %while.body.i.i, %entry
  %retval.sroa.0.0.i.i = phi ptr [ %0, %entry ], [ %spec.select.i.i, %while.body.i.i ]
  %rateTimes_.i = getelementptr inbounds nuw i8, ptr %evolution, i64 8
  %5 = load i64, ptr %retval.sroa.0.0.i.i, align 8, !tbaa !35
  %_M_finish.i2 = getelementptr inbounds nuw i8, ptr %evolution, i64 16
  %6 = load ptr, ptr %_M_finish.i2, align 8, !tbaa !24
  %7 = load ptr, ptr %rateTimes_.i, align 8, !tbaa !23
  %sub.ptr.lhs.cast.i = ptrtoint ptr %6 to i64
  %sub.ptr.rhs.cast.i = ptrtoint ptr %7 to i64
  %sub.ptr.sub.i = sub i64 %sub.ptr.lhs.cast.i, %sub.ptr.rhs.cast.i
  %sub.ptr.div.i = ashr exact i64 %sub.ptr.sub.i, 3
  %sub = add nsw i64 %sub.ptr.div.i, -1
  %cmp = icmp eq i64 %5, %sub
  ret i1 %cmp
}